target datalayout = "e-m:e-p270:32:32-p271:32:32-p272:64:64-i64:64-i128:128-f80:128-n8:16:32:64-S128"
target triple = "x86_64-pc-linux-gnu"

%struct.UEnumeration = type { ptr, ptr, ptr, ptr, ptr, ptr, ptr }

; Function Attrs: mustprogress uwtable
define ptr @ucnv_openAllNames_77(ptr noundef %0) #2 {
  %2 = alloca ptr, align 8
  %3 = alloca ptr, align 8
  %4 = alloca ptr, align 8
  %5 = alloca ptr, align 8
  %6 = alloca i32, align 4
  store ptr %0, ptr %3, align 8, !tbaa !17
  call void @llvm.lifetime.start.p0(i64 8, ptr %4) #12
  store ptr null, ptr %4, align 8, !tbaa !37
  %7 = load ptr, ptr %3, align 8, !tbaa !17
  %8 = call noundef signext i8 @_ZL13haveAliasDataP10UErrorCode(ptr noundef %7)
  %9 = icmp ne i8 %8, 0
  br i1 %9, label %10, label %35

10:                                               ; preds = %1
  call void @llvm.lifetime.start.p0(i64 8, ptr %5) #12
  %11 = call noalias ptr @uprv_malloc_77(i64 noundef 56) #14
  store ptr %11, ptr %4, align 8, !tbaa !37
  %12 = load ptr, ptr %4, align 8, !tbaa !37
  %13 = icmp eq ptr %12, null
  br i1 %13, label %14, label %16

14:                                               ; preds = %10
  %15 = load ptr, ptr %3, align 8, !tbaa !17
  store i32 7, ptr %15, align 4, !tbaa !26
  store ptr null, ptr %2, align 8
  store i32 1, ptr %6, align 4
  br label %32

16:                                               ; preds = %10
  br label %17

17:                                               ; preds = %16
  %18 = load ptr, ptr %4, align 8, !tbaa !37
  call void @llvm.memcpy.p0.p0.i64(ptr align 8 %18, ptr align 8 @_ZL18gEnumAllConverters, i64 56, i1 false)
  br label %19

19:                                               ; preds = %17
  br label %20

20:                                               ; preds = %19
  %21 = call noalias ptr @uprv_malloc_77(i64 noundef 2) #14
  store ptr %21, ptr %5, align 8, !tbaa !53
  %22 = load ptr, ptr %5, align 8, !tbaa !53
  %23 = icmp eq ptr %22, null
  br i1 %23, label %24, label %27

24:                                               ; preds = %20
  %25 = load ptr, ptr %3, align 8, !tbaa !17
  store i32 7, ptr %25, align 4, !tbaa !26
  %26 = load ptr, ptr %4, align 8, !tbaa !37
  call void @uprv_free_77(ptr noundef %26)
  store ptr null, ptr %2, align 8
  store i32 1, ptr %6, align 4
  br label %32

27:                                               ; preds = %20
  %28 = load ptr, ptr %5, align 8, !tbaa !53
  store i16 0, ptr %28, align 2, !tbaa !23
  %29 = load ptr, ptr %5, align 8, !tbaa !53
  %30 = load ptr, ptr %4, align 8, !tbaa !37
  %31 = getelementptr inbounds nuw %struct.UEnumeration, ptr %30, i32 0, i32 1
  store ptr %29, ptr %31, align 8, !tbaa !45
  store i32 0, ptr %6, align 4
  br label %32

32:                                               ; preds = %27, %24, %14
  call void @llvm.lifetime.end.p0(i64 8, ptr %5) #12
  %33 = load i32, ptr %6, align 4
  switch i32 %33, label %37 [
    i32 0, label %34
  ]

34:                                               ; preds = %32
  br label %35

35:                                               ; preds = %34, %1
  %36 = load ptr, ptr %4, align 8, !tbaa !37
  store ptr %36, ptr %2, align 8
  store i32 1, ptr %6, align 4
  br label %37

37:                                               ; preds = %35, %32
  call void @llvm.lifetime.end.p0(i64 8, ptr %4) #12
  %38 = load ptr, ptr %2, align 8
  ret ptr %38
}