; Function Attrs: mustprogress uwtable
define noundef ptr @ucnv_openAllNames_77(ptr noundef %0) local_unnamed_addr #3 {
  %2 = tail call fastcc noundef signext i8 @_ZL13haveAliasDataP10UErrorCode(ptr noundef %0)
  %.not = icmp eq i8 %2, 0
  br i1 %.not, label %.critedge, label %3

3:                                                ; preds = %1
  %4 = tail call noalias dereferenceable_or_null(56) ptr @uprv_malloc_77(i64 noundef 56) #16
  %5 = icmp eq ptr %4, null
  br i1 %5, label %6, label %7

6:                                                ; preds = %3
  store i32 7, ptr %0, align 4, !tbaa !13
  br label %.critedge

7:                                                ; preds = %3
  tail call void @llvm.memcpy.p0.p0.i64(ptr noundef nonnull align 8 dereferenceable(56) %4, ptr noundef nonnull align 8 dereferenceable(56) @_ZL18gEnumAllConverters, i64 56, i1 false)
  %8 = tail call noalias dereferenceable_or_null(2) ptr @uprv_malloc_77(i64 noundef 2) #16
  %9 = icmp eq ptr %8, null
  br i1 %9, label %10, label %11

10:                                               ; preds = %7
  store i32 7, ptr %0, align 4, !tbaa !13
  tail call void @uprv_free_77(ptr noundef nonnull %4)
  br label %.critedge

11:                                               ; preds = %7
  store i16 0, ptr %8, align 2, !tbaa !22
  %12 = getelementptr inbounds nuw i8, ptr %4, i64 8
  store ptr %8, ptr %12, align 8, !tbaa !53
  br label %.critedge

.critedge:                                        ; preds = %6, %10, %1, %11
  %.1 = phi ptr [ %4, %11 ], [ null, %1 ], [ null, %10 ], [ null, %6 ]
  ret ptr %.1
}